Certificate:
    Data:
        Version: 3 (0x2)
        Serial Number: 3 (0x3)
        Signature Algorithm: sha256WithRSAEncryption
        Issuer: C=IN, ST=Karnataka, L=Bangalore, O=ISRD-CAIR, OU=ISRD-CAIR, CN=tuleap.isrd.cair.drdo, jenkins.isrd.cair.drdo
        Validity
            Not Before: Jan  3 15:09:36 2025 GMT
            Not After : Jan  1 15:09:36 2035 GMT
        Subject: C=IN, ST=Karnataka, O=ISRD-CAIR, OU=ISRD-CAIR, CN=tuleap.isrd.cair.drdo, jenkins.isrd.cair.drdo
        Subject Public Key Info:
            Public Key Algorithm: rsaEncryption
                Public-Key: (2048 bit)
                Modulus:
                    00:c2:47:97:9a:a4:a2:3b:80:5a:c5:01:dc:48:1a:
                    27:15:f3:89:47:79:b8:7d:0d:a8:51:1b:8a:64:32:
                    e0:d4:54:14:4a:d6:4f:8b:ff:a5:4c:82:1a:ae:47:
                    3c:ef:a4:4b:ca:6b:a3:c6:f2:c8:39:60:ae:58:66:
                    71:52:23:9a:66:68:82:09:a1:4f:4f:9e:25:88:d7:
                    80:e8:4d:15:71:5d:f8:e7:5a:11:8a:39:2d:90:9f:
                    5d:af:68:e1:f9:f2:7f:e3:cc:2b:f0:2e:a6:d4:e8:
                    db:08:2f:27:5b:6b:e8:0a:dd:86:17:59:40:3d:72:
                    d5:f1:c7:ec:19:f2:57:74:2d:18:0d:e5:12:7b:9c:
                    63:2e:1a:f0:e2:7f:03:0f:0e:29:76:c2:13:65:05:
                    46:f0:ca:bb:52:2b:d4:b6:60:79:68:67:cf:d2:5f:
                    a0:ba:a3:30:82:06:8b:66:6c:70:67:91:23:70:d1:
                    06:bd:7b:dc:4a:42:e3:61:3f:76:7d:35:fe:cd:09:
                    2f:35:aa:68:05:b8:ff:48:d1:72:37:37:b9:69:41:
                    80:f4:51:33:57:b3:d9:92:a3:9c:08:15:70:e7:d8:
                    69:bf:d3:8f:03:de:75:93:fa:f3:8e:fd:a3:74:dc:
                    e3:6c:80:77:a1:f7:f4:c1:ae:4b:09:c0:c9:00:e4:
                    80:c9
                Exponent: 65537 (0x10001)
        X509v3 extensions:
            X509v3 Basic Constraints: 
                CA:FALSE
            X509v3 Key Usage: 
                Digital Signature, Non Repudiation, Key Encipherment
            X509v3 Subject Alternative Name: 
                DNS:tuleap.isrd.cair.drdo, DNS:jenkins.isrd.cair.drdo
            X509v3 Subject Key Identifier: 
                AA:5A:1C:DD:C9:21:C2:D5:9A:5C:15:4B:44:6F:22:C4:91:3A:2F:81
            X509v3 Authority Key Identifier: 
                12:27:9A:CD:7C:82:80:76:32:BF:90:F2:AC:73:11:8A:32:A5:89:42
    Signature Algorithm: sha256WithRSAEncryption
    Signature Value:
        2f:42:46:7f:67:a4:7d:d6:32:6f:d6:23:72:93:44:3a:a9:0c:
        87:05:2f:bb:a6:43:9d:0f:00:65:80:98:13:66:de:74:2d:6b:
        80:93:e9:b8:30:65:15:a3:46:25:1c:2a:a5:69:74:e5:2f:63:
        19:c9:4d:5b:8b:68:bb:85:49:0d:3b:ae:8e:c4:e4:18:e6:79:
        2c:c8:06:05:f5:47:ed:09:0c:92:b8:d4:2e:9c:16:80:14:16:
        84:df:b9:f5:2b:a9:08:e2:46:9d:0a:d9:4d:39:d2:0e:8a:3e:
        07:54:ad:ef:be:d6:0f:02:eb:47:a9:7b:00:97:8f:f6:82:6e:
        ea:f9:5a:42:39:9e:3e:88:2c:37:38:b9:f4:9b:6b:c3:7b:72:
        72:6b:49:bc:88:51:08:1a:8a:11:c8:1c:99:55:66:e8:b4:fc:
        9d:c6:17:46:2f:02:62:93:b3:e9:d9:07:a3:9e:18:e9:97:c0:
        50:61:1a:f6:b4:90:6a:91:db:45:f7:d3:48:af:c8:54:15:bf:
        7a:3f:2a:f6:2d:e3:7b:21:5e:3d:82:32:f6:3f:f1:41:8c:71:
        de:83:d0:e2:2d:7a:00:08:60:cc:96:58:39:27:e5:e0:25:eb:
        17:0d:11:3b:1a:4c:c0:76:d3:7f:3f:ab:3c:c9:45:fd:4c:1c:
        9a:b2:96:09:cc:0a:ea:fe:c3:13:93:bf:90:5d:ff:68:88:2c:
        d7:1d:a8:62:21:59:17:15:8d:5f:45:e6:6b:e3:f7:d1:5c:43:
        e0:ea:72:30:9b:93:b6:93:2b:3b:35:bc:a3:0f:09:eb:d7:41:
        d7:26:4e:74:63:9d:3e:72:69:03:f8:97:b7:d4:7c:b8:57:df:
        3f:89:71:3b:e1:2a:9b:18:c5:af:ee:ce:f9:8d:67:1c:ac:5b:
        4f:d3:89:6d:ee:f8:de:ff:fd:96:59:e6:12:d8:ef:7f:4b:05:
        68:0e:3a:67:82:a6:26:85:07:48:e6:56:62:d9:7b:79:e2:34:
        1f:2b:50:aa:74:56:8d:5d:67:73:7b:99:ff:12:0a:44:bf:d6:
        c2:08:f1:6c:45:bb:eb:f7:1b:8a:d4:5f:24:56:6e:1e:44:a3:
        2f:21:ee:cd:53:77:43:6c:ee:63:b9:78:dd:8f:4d:4d:9c:d1:
        43:23:b3:ed:37:05:77:72:b9:48:74:b2:ec:ca:8a:41:7a:35:
        96:84:d8:46:38:af:63:09:f4:3b:f2:90:ca:5e:0b:70:39:fc:
        c8:20:90:88:a1:a4:c3:99:2a:f1:82:f0:82:bc:b2:7d:e8:70:
        01:8e:c1:86:fb:24:a9:96:b1:b5:9b:47:c9:a8:75:42:c9:21:
        4e:38:9d:b0:34:4e:17:05
-----BEGIN CERTIFICATE-----
MIIFKTCCAxGgAwIBAgIBAzANBgkqhkiG9w0BAQsFADCBlTELMAkGA1UEBhMCSU4x
EjAQBgNVBAgMCUthcm5hdGFrYTESMBAGA1UEBwwJQmFuZ2Fsb3JlMRIwEAYDVQQK
DAlJU1JELUNBSVIxEjAQBgNVBAsMCUlTUkQtQ0FJUjE2MDQGA1UEAwwtdHVsZWFw
LmlzcmQuY2Fpci5kcmRvLCBqZW5raW5zLmlzcmQuY2Fpci5kcmRvMB4XDTI1MDEw
MzE1MDkzNloXDTM1MDEwMTE1MDkzNlowgYExCzAJBgNVBAYTAklOMRIwEAYDVQQI
DAlLYXJuYXRha2ExEjAQBgNVBAoMCUlTUkQtQ0FJUjESMBAGA1UECwwJSVNSRC1D
QUlSMTYwNAYDVQQDDC10dWxlYXAuaXNyZC5jYWlyLmRyZG8sIGplbmtpbnMuaXNy
ZC5jYWlyLmRyZG8wggEiMA0GCSqGSIb3DQEBAQUAA4IBDwAwggEKAoIBAQDCR5ea
pKI7gFrFAdxIGicV84lHebh9DahRG4pkMuDUVBRK1k+L/6VMghquRzzvpEvKa6PG
8sg5YK5YZnFSI5pmaIIJoU9PniWI14DoTRVxXfjnWhGKOS2Qn12vaOH58n/jzCvw
LqbU6NsILydba+gK3YYXWUA9ctXxx+wZ8ld0LRgN5RJ7nGMuGvDifwMPDil2whNl
BUbwyrtSK9S2YHloZ8/SX6C6ozCCBotmbHBnkSNw0Qa9e9xKQuNhP3Z9Nf7NCS81
qmgFuP9I0XI3N7lpQYD0UTNXs9mSo5wIFXDn2Gm/048D3nWT+vOO/aN03ONsgHeh
9/TBrksJwMkA5IDJAgMBAAGjgZUwgZIwCQYDVR0TBAIwADALBgNVHQ8EBAMCBeAw
OAYDVR0RBDEwL4IVdHVsZWFwLmlzcmQuY2Fpci5kcmRvghZqZW5raW5zLmlzcmQu
Y2Fpci5kcmRvMB0GA1UdDgQWBBSqWhzdySHC1ZpcFUtEbyLEkTovgTAfBgNVHSME
GDAWgBQSJ5rNfIKAdjK/kPKscxGKMqWJQjANBgkqhkiG9w0BAQsFAAOCAgEAL0JG
f2ekfdYyb9YjcpNEOqkMhwUvu6ZDnQ8AZYCYE2bedC1rgJPpuDBlFaNGJRwqpWl0
5S9jGclNW4tou4VJDTuujsTkGOZ5LMgGBfVH7QkMkrjULpwWgBQWhN+59SupCOJG
nQrZTTnSDoo+B1St777WDwLrR6l7AJeP9oJu6vlaQjmePogsNzi59Jtrw3tycmtJ
vIhRCBqKEcgcmVVm6LT8ncYXRi8CYpOz6dkHo54Y6ZfAUGEa9rSQapHbRffTSK/I
VBW/ej8q9i3jeyFePYIy9j/xQYxx3oPQ4i16AAhgzJZYOSfl4CXrFw0ROxpMwHbT
fz+rPMlF/UwcmrKWCcwK6v7DE5O/kF3/aIgs1x2oYiFZFxWNX0Xma+P30VxD4Opy
MJuTtpMrOzW8ow8J69dB1yZOdGOdPnJpA/iXt9R8uFffP4lxO+EqmxjFr+7O+Y1n
HKxbT9OJbe743v/9llnmEtjvf0sFaA46Z4KmJoUHSOZWYtl7eeI0HytQqnRWjV1n
c3uZ/xIKRL/WwgjxbEW76/cbitRfJFZuHkSjLyHuzVN3Q2zuY7l43Y9NTZzRQyOz
7TcFd3K5SHSy7MqKQXo1loTYRjivYwn0O/KQyl4LcDn8yCCQiKGkw5kq8YLwgryy
fehwAY7BhvskqZaxtZtHyah1QskhTjidsDROFwU=
-----END CERTIFICATE-----
